; Function Attrs: nounwind uwtable
define dso_local void @ReorderBufferAbort(ptr noundef %0, i32 noundef %1, i64 noundef %2, i64 noundef %3) local_unnamed_addr #0 {
  %5 = alloca i32, align 4
  %6 = alloca i8, align 1
  call void @llvm.lifetime.start.p0(i64 4, ptr nonnull %5)
  store i32 %1, ptr %5, align 4
  call void @llvm.lifetime.start.p0(i64 1, ptr nonnull %6) #19
  %7 = getelementptr inbounds nuw i8, ptr %0, i64 64
  %8 = load i32, ptr %7, align 8
  %.not.i = icmp ne i32 %8, 0
  %9 = icmp eq i32 %8, %1
  %or.cond.i = and i1 %.not.i, %9
  br i1 %or.cond.i, label %10, label %13

10:                                               ; preds = %4
  %11 = getelementptr inbounds nuw i8, ptr %0, i64 72
  %12 = load ptr, ptr %11, align 8
  %.not34.i = icmp eq ptr %12, null
  call void @llvm.lifetime.end.p0(i64 1, ptr nonnull %6) #19
  call void @llvm.lifetime.end.p0(i64 4, ptr nonnull %5)
  br i1 %.not34.i, label %ReorderBufferTXNByXid.exit.thread, label %ReorderBufferTXNByXid.exit.thread21

13:                                               ; preds = %4
  %14 = load ptr, ptr %0, align 8
  %15 = call ptr @hash_search(ptr noundef %14, ptr noundef nonnull %5, i32 noundef 0, ptr noundef nonnull %6) #19
  %16 = load i8, ptr %6, align 1, !range !6, !noundef !7
  %17 = trunc nuw i8 %16 to i1
  br i1 %17, label %ReorderBufferTXNByXid.exit, label %ReorderBufferTXNByXid.exit.thread24

ReorderBufferTXNByXid.exit.thread24:              ; preds = %13
  %18 = load i32, ptr %5, align 4
  store i32 %18, ptr %7, align 8
  %19 = getelementptr inbounds nuw i8, ptr %0, i64 72
  store ptr null, ptr %19, align 8
  call void @llvm.lifetime.end.p0(i64 1, ptr nonnull %6) #19
  call void @llvm.lifetime.end.p0(i64 4, ptr nonnull %5)
  br label %ReorderBufferTXNByXid.exit.thread

ReorderBufferTXNByXid.exit:                       ; preds = %13
  %20 = getelementptr inbounds nuw i8, ptr %15, i64 8
  %21 = load ptr, ptr %20, align 8
  %22 = load i32, ptr %5, align 4
  store i32 %22, ptr %7, align 8
  %23 = getelementptr inbounds nuw i8, ptr %0, i64 72
  store ptr %21, ptr %23, align 8
  call void @llvm.lifetime.end.p0(i64 1, ptr nonnull %6) #19
  call void @llvm.lifetime.end.p0(i64 4, ptr nonnull %5)
  %24 = icmp eq ptr %21, null
  br i1 %24, label %ReorderBufferTXNByXid.exit.thread, label %ReorderBufferTXNByXid.exit.thread21

ReorderBufferTXNByXid.exit.thread21:              ; preds = %10, %ReorderBufferTXNByXid.exit
  %.0.i23 = phi ptr [ %21, %ReorderBufferTXNByXid.exit ], [ %12, %10 ]
  %25 = getelementptr inbounds nuw i8, ptr %.0.i23, i64 80
  store i64 %3, ptr %25, align 8
  %26 = load i32, ptr %.0.i23, align 8
  %27 = and i32 %26, 16
  %.not = icmp eq i32 %27, 0
  br i1 %.not, label %ReorderBufferImmediateInvalidation.exit, label %28

28:                                               ; preds = %ReorderBufferTXNByXid.exit.thread21
  %29 = getelementptr inbounds nuw i8, ptr %0, i64 168
  %30 = load ptr, ptr %29, align 8
  call void %30(ptr noundef nonnull %0, ptr noundef nonnull %.0.i23, i64 noundef %2) #19
  %31 = getelementptr inbounds nuw i8, ptr %.0.i23, i64 228
  %32 = load i32, ptr %31, align 4
  %.not18 = icmp eq i32 %32, 0
  br i1 %.not18, label %ReorderBufferImmediateInvalidation.exit, label %33

33:                                               ; preds = %28
  %34 = getelementptr inbounds nuw i8, ptr %.0.i23, i64 232
  %35 = load ptr, ptr %34, align 8
  %36 = call zeroext i1 @IsTransactionOrTransactionBlock() #19
  br i1 %36, label %37, label %.lr.ph.i.preheader

37:                                               ; preds = %33
  call void @BeginInternalSubTransaction(ptr noundef nonnull @.str.7) #19
  call void @AbortCurrentTransaction() #19
  br label %.lr.ph.i.preheader

.lr.ph.i.preheader:                               ; preds = %37, %33
  br label %.lr.ph.i

.lr.ph.i:                                         ; preds = %.lr.ph.i.preheader, %.lr.ph.i
  %.07.i = phi i32 [ %40, %.lr.ph.i ], [ 0, %.lr.ph.i.preheader ]
  %38 = sext i32 %.07.i to i64
  %39 = getelementptr inbounds %union.SharedInvalidationMessage, ptr %35, i64 %38
  call void @LocalExecuteInvalidationMessage(ptr noundef %39) #19
  %40 = add nuw i32 %.07.i, 1
  %exitcond.not.i = icmp eq i32 %40, %32
  br i1 %exitcond.not.i, label %._crit_edge.i, label %.lr.ph.i, !llvm.loop !15

._crit_edge.i:                                    ; preds = %.lr.ph.i
  br i1 %36, label %41, label %ReorderBufferImmediateInvalidation.exit

41:                                               ; preds = %._crit_edge.i
  call void @RollbackAndReleaseCurrentSubTransaction() #19
  br label %ReorderBufferImmediateInvalidation.exit

ReorderBufferImmediateInvalidation.exit:          ; preds = %41, %._crit_edge.i, %28, %ReorderBufferTXNByXid.exit.thread21
  %42 = getelementptr inbounds nuw i8, ptr %.0.i23, i64 32
  store i64 %2, ptr %42, align 8
  call fastcc void @ReorderBufferCleanupTXN(ptr noundef %0, ptr noundef nonnull %.0.i23)
  br label %ReorderBufferTXNByXid.exit.thread

ReorderBufferTXNByXid.exit.thread:                ; preds = %10, %ReorderBufferTXNByXid.exit.thread24, %ReorderBufferTXNByXid.exit, %ReorderBufferImmediateInvalidation.exit
  ret void
}